; Function Attrs: nounwind uwtable
define internal fastcc noundef i32 @_roll_usage(ptr noundef %0, ptr readonly captures(none) %.8.val, ptr noundef writeonly captures(none) initializes((0, 8)) %1) unnamed_addr #0 {
  %3 = alloca ptr, align 8
  %4 = alloca %struct.timeval, align 8
  %5 = alloca %struct.timeval, align 8
  %6 = alloca [20 x i8], align 16
  %7 = alloca i64, align 8
  call void @llvm.lifetime.start.p0(i64 8, ptr nonnull %3) #10
  store ptr null, ptr %3, align 8
  call void @llvm.lifetime.start.p0(i64 16, ptr nonnull %4) #10
  call void @llvm.lifetime.start.p0(i64 16, ptr nonnull %5) #10
  call void @llvm.lifetime.start.p0(i64 20, ptr nonnull %6) #10
  call void @llvm.memset.p0.i64(ptr noundef nonnull align 16 dereferenceable(20) %6, i8 0, i64 20, i1 false)
  call void @llvm.lifetime.start.p0(i64 8, ptr nonnull %7) #10
  %8 = tail call i32 @get_log_level() #10
  %9 = icmp sgt i32 %8, 2
  br i1 %9, label %10, label %14

10:                                               ; preds = %2
  %11 = load ptr, ptr %0, align 8
  %12 = getelementptr inbounds nuw i8, ptr %11, i64 60
  %13 = load i32, ptr %12, align 4
  tail call void (i32, ptr, ...) @log_var(i32 noundef 3, ptr noundef nonnull @.str.140, i32 noundef %13) #10
  br label %14

14:                                               ; preds = %10, %2
  %15 = load ptr, ptr %0, align 8
  %16 = getelementptr inbounds nuw i8, ptr %15, i64 8
  %17 = load i32, ptr %16, align 8
  %18 = icmp eq i32 %17, 0
  %19 = load i32, ptr getelementptr inbounds nuw (i8, ptr @slurm_conf, i64 1152), align 8
  %20 = icmp eq i32 %17, %19
  %or.cond.i = select i1 %18, i1 true, i1 %20
  br i1 %or.cond.i, label %_validate_operator.exit.thread, label %_validate_operator.exit

_validate_operator.exit:                          ; preds = %14
  %21 = tail call i32 @assoc_mgr_get_admin_level(ptr noundef nonnull %0, i32 noundef %17) #10
  %22 = icmp ugt i32 %21, 1
  br i1 %22, label %_validate_operator.exit.thread, label %23

23:                                               ; preds = %_validate_operator.exit
  %24 = load ptr, ptr %0, align 8
  %25 = getelementptr inbounds nuw i8, ptr %24, i64 60
  %26 = load i32, ptr %25, align 4
  %27 = tail call i32 (ptr, ...) @error(ptr noundef nonnull @.str.16, i32 noundef %26, ptr noundef nonnull @.str.21) #10
  br label %43

_validate_operator.exit.thread:                   ; preds = %14, %_validate_operator.exit
  %28 = call i32 @gettimeofday(ptr noundef nonnull %4, ptr noundef null) #10
  %29 = getelementptr inbounds nuw i8, ptr %0, i64 56
  %30 = load ptr, ptr %29, align 8
  %31 = getelementptr inbounds nuw i8, ptr %.8.val, i64 16
  %32 = load i64, ptr %31, align 8
  %33 = getelementptr inbounds nuw i8, ptr %.8.val, i64 8
  %34 = load i64, ptr %33, align 8
  %35 = load i16, ptr %.8.val, align 8
  %36 = call i32 @acct_storage_g_roll_usage(ptr noundef %30, i64 noundef %32, i64 noundef %34, i16 noundef zeroext %35, ptr noundef nonnull %3) #10
  %37 = call i32 @gettimeofday(ptr noundef nonnull %5, ptr noundef null) #10
  call void @slurm_diff_tv_str(ptr noundef nonnull %4, ptr noundef nonnull %5, ptr noundef nonnull %6, i32 noundef 20, ptr noundef null, i64 noundef 0, ptr noundef nonnull %7) #10
  %38 = load ptr, ptr %3, align 8
  %39 = load i64, ptr %7, align 8
  call void @handle_rollup_stats(ptr noundef %38, i64 noundef %39, i32 noundef 1) #10
  %40 = load ptr, ptr %3, align 8
  %.not = icmp eq ptr %40, null
  br i1 %.not, label %42, label %41

41:                                               ; preds = %_validate_operator.exit.thread
  call void @list_destroy(ptr noundef nonnull %40) #10
  br label %42

42:                                               ; preds = %41, %_validate_operator.exit.thread
  store ptr null, ptr %3, align 8
  br label %43

43:                                               ; preds = %42, %23
  %.013 = phi i32 [ %36, %42 ], [ 2002, %23 ]
  %.0 = phi ptr [ null, %42 ], [ @.str.21, %23 ]
  %44 = load ptr, ptr %0, align 8
  %45 = call ptr @slurm_persist_make_rc_msg(ptr noundef %44, i32 noundef %.013, ptr noundef %.0, i16 noundef zeroext 1440) #10
  store ptr %45, ptr %1, align 8
  call void @llvm.lifetime.end.p0(i64 8, ptr nonnull %7) #10
  call void @llvm.lifetime.end.p0(i64 20, ptr nonnull %6) #10
  call void @llvm.lifetime.end.p0(i64 16, ptr nonnull %5) #10
  call void @llvm.lifetime.end.p0(i64 16, ptr nonnull %4) #10
  call void @llvm.lifetime.end.p0(i64 8, ptr nonnull %3) #10
  ret i32 %.013
}